target datalayout = "e-m:e-p270:32:32-p271:32:32-p272:64:64-i64:64-i128:128-f80:128-n8:16:32:64-S128"
target triple = "x86_64-unknown-linux-gnu"

%"class.zmq::mechanism_t" = type { ptr, %"struct.zmq::options_t", %"class.std::map", %"class.std::map", %"struct.zmq::blob_t", %"struct.zmq::blob_t" }
%"struct.zmq::options_t" = type { i32, i32, i64, i8, [256 x i8], i32, i32, i32, i32, i32, i32, i32, i32, i8, %"struct.zmq::atomic_value_t", i32, i32, i32, i32, i32, i32, i64, i32, i32, i8, i32, i8, i8, i8, i8, i8, %"class.std::__cxx11::basic_string", %"class.std::__cxx11::basic_string", %"class.std::__cxx11::basic_string", i32, i32, i32, i32, %"class.std::vector", %"class.std::set", %"class.std::set", %"class.std::set.6", i32, i32, %"class.std::__cxx11::basic_string", %"class.std::__cxx11::basic_string", %"class.std::__cxx11::basic_string", [32 x i8], [32 x i8], [32 x i8], %"class.std::__cxx11::basic_string", %"class.std::__cxx11::basic_string", i32, i32, i8, i32, i8, i32, i8, i16, i32, i32, i32, %"class.std::__cxx11::basic_string", i8, i8, i8, i32, i32, i8, i32, %"class.std::map", i32, %"class.std::__cxx11::basic_string", %"class.std::__cxx11::basic_string", %"class.std::__cxx11::basic_string", %"class.std::__cxx11::basic_string", i8, %"class.std::vector.21", i8, %"class.std::vector.21", i8, %"class.std::vector.21", i8, i32, i8, i32, i32, i32, i32, i32, i8, i32 }
%"struct.zmq::atomic_value_t" = type { %"struct.std::atomic" }
%"struct.std::atomic" = type { %"struct.std::__atomic_base" }
%"struct.std::__atomic_base" = type { i32 }
%"class.std::vector" = type { %"struct.std::_Vector_base" }
%"struct.std::_Vector_base" = type { %"struct.std::_Vector_base<zmq::tcp_address_mask_t, std::allocator<zmq::tcp_address_mask_t>>::_Vector_impl" }
%"struct.std::_Vector_base<zmq::tcp_address_mask_t, std::allocator<zmq::tcp_address_mask_t>>::_Vector_impl" = type { %"struct.std::_Vector_base<zmq::tcp_address_mask_t, std::allocator<zmq::tcp_address_mask_t>>::_Vector_impl_data" }
%"struct.std::_Vector_base<zmq::tcp_address_mask_t, std::allocator<zmq::tcp_address_mask_t>>::_Vector_impl_data" = type { ptr, ptr, ptr }
%"class.std::set" = type { %"class.std::_Rb_tree" }
%"class.std::_Rb_tree" = type { %"struct.std::_Rb_tree<unsigned int, unsigned int, std::_Identity<unsigned int>, std::less<unsigned int>>::_Rb_tree_impl" }
%"struct.std::_Rb_tree<unsigned int, unsigned int, std::_Identity<unsigned int>, std::less<unsigned int>>::_Rb_tree_impl" = type { %"struct.std::_Rb_tree_key_compare", %"struct.std::_Rb_tree_header" }
%"struct.std::_Rb_tree_key_compare" = type { %"struct.std::less" }
%"struct.std::less" = type { i8 }
%"struct.std::_Rb_tree_header" = type { %"struct.std::_Rb_tree_node_base", i64 }
%"struct.std::_Rb_tree_node_base" = type { i32, ptr, ptr, ptr }
%"class.std::set.6" = type { %"class.std::_Rb_tree.7" }
%"class.std::_Rb_tree.7" = type { %"struct.std::_Rb_tree<int, int, std::_Identity<int>, std::less<int>>::_Rb_tree_impl" }
%"struct.std::_Rb_tree<int, int, std::_Identity<int>, std::less<int>>::_Rb_tree_impl" = type { %"struct.std::_Rb_tree_key_compare.11", %"struct.std::_Rb_tree_header" }
%"struct.std::_Rb_tree_key_compare.11" = type { %"struct.std::less.12" }
%"struct.std::less.12" = type { i8 }
%"class.std::__cxx11::basic_string" = type { %"struct.std::__cxx11::basic_string<char>::_Alloc_hider", i64, %union.anon }
%"struct.std::__cxx11::basic_string<char>::_Alloc_hider" = type { ptr }
%union.anon = type { i64, [8 x i8] }
%"class.std::vector.21" = type { %"struct.std::_Vector_base.22" }
%"struct.std::_Vector_base.22" = type { %"struct.std::_Vector_base<unsigned char, std::allocator<unsigned char>>::_Vector_impl" }
%"struct.std::_Vector_base<unsigned char, std::allocator<unsigned char>>::_Vector_impl" = type { %"struct.std::_Vector_base<unsigned char, std::allocator<unsigned char>>::_Vector_impl_data" }
%"struct.std::_Vector_base<unsigned char, std::allocator<unsigned char>>::_Vector_impl_data" = type { ptr, ptr, ptr }
%"class.std::map" = type { %"class.std::_Rb_tree.14" }
%"class.std::_Rb_tree.14" = type { %"struct.std::_Rb_tree<std::__cxx11::basic_string<char>, std::pair<const std::__cxx11::basic_string<char>, std::__cxx11::basic_string<char>>, std::_Select1st<std::pair<const std::__cxx11::basic_string<char>, std::__cxx11::basic_string<char>>>, std::less<std::__cxx11::basic_string<char>>>::_Rb_tree_impl" }
%"struct.std::_Rb_tree<std::__cxx11::basic_string<char>, std::pair<const std::__cxx11::basic_string<char>, std::__cxx11::basic_string<char>>, std::_Select1st<std::pair<const std::__cxx11::basic_string<char>, std::__cxx11::basic_string<char>>>, std::less<std::__cxx11::basic_string<char>>>::_Rb_tree_impl" = type { %"struct.std::_Rb_tree_key_compare.18", %"struct.std::_Rb_tree_header" }
%"struct.std::_Rb_tree_key_compare.18" = type { %"struct.std::less.19" }
%"struct.std::less.19" = type { i8 }
%"struct.zmq::blob_t" = type <{ ptr, i64, i8, [7 x i8] }>
%"class.zmq::zap_client_common_handshake_t" = type { %"class.zmq::zap_client_t.base", i32, i32, %"class.zmq::mechanism_base_t" }
%"class.zmq::zap_client_t.base" = type { ptr, %"class.std::__cxx11::basic_string", %"class.std::__cxx11::basic_string" }
%"class.zmq::mechanism_base_t" = type { %"class.zmq::mechanism_t", ptr }

@_ZN3zmqL12ready_prefixE = internal constant [7 x i8] c"\05READY\00", align 1

; Function Attrs: mustprogress uwtable
define void @_ZNK3zmq14plain_server_t13produce_readyEPNS_5msg_tE(ptr noundef nonnull align 8 dereferenceable(1576) %this, ptr noundef %msg_) #0 align 2 {
entry:
  %this.addr = alloca ptr, align 8
  %msg_.addr = alloca ptr, align 8
  store ptr %this, ptr %this.addr, align 8
  store ptr %msg_, ptr %msg_.addr, align 8
  %this1 = load ptr, ptr %this.addr, align 8
  %add.ptr = getelementptr inbounds i8, ptr %this1, i64 80
  %0 = load ptr, ptr %msg_.addr, align 8
  call void @_ZNK3zmq11mechanism_t34make_command_with_basic_propertiesEPNS_5msg_tEPKcm(ptr noundef nonnull align 8 dereferenceable(1488) %add.ptr, ptr noundef %0, ptr noundef @_ZN3zmqL12ready_prefixE, i64 noundef 6)
  ret void
}

; Function Attrs: mustprogress uwtable
define noundef i32 @_ZN3zmq14plain_server_t22next_handshake_commandEPNS_5msg_tE(ptr noundef nonnull align 8 dereferenceable(1576) %this, ptr noundef %msg_) unnamed_addr #0 align 2 {
entry:
  %this.addr = alloca ptr, align 8
  %msg_.addr = alloca ptr, align 8
  %rc = alloca i32, align 4
  store ptr %this, ptr %this.addr, align 8
  store ptr %msg_, ptr %msg_.addr, align 8
  %this1 = load ptr, ptr %this.addr, align 8
  store i32 0, ptr %rc, align 4
  %state = getelementptr inbounds %"class.zmq::zap_client_common_handshake_t", ptr %this1, i32 0, i32 1
  %0 = load i32, ptr %state, align 8
  switch i32 %0, label %sw.default [
    i32 1, label %sw.bb
    i32 4, label %sw.bb3
    i32 5, label %sw.bb5
  ]

sw.bb:                                            ; preds = %entry
  %1 = load ptr, ptr %msg_.addr, align 8
  call void @_ZN3zmq14plain_server_t15produce_welcomeEPNS_5msg_tE(ptr noundef %1)
  %state2 = getelementptr inbounds %"class.zmq::zap_client_common_handshake_t", ptr %this1, i32 0, i32 1
  store i32 2, ptr %state2, align 8
  br label %sw.epilog

sw.bb3:                                           ; preds = %entry
  %2 = load ptr, ptr %msg_.addr, align 8
  call void @_ZNK3zmq14plain_server_t13produce_readyEPNS_5msg_tE(ptr noundef nonnull align 8 dereferenceable(1576) %this1, ptr noundef %2)
  %state4 = getelementptr inbounds %"class.zmq::zap_client_common_handshake_t", ptr %this1, i32 0, i32 1
  store i32 7, ptr %state4, align 8
  br label %sw.epilog

sw.bb5:                                           ; preds = %entry
  %3 = load ptr, ptr %msg_.addr, align 8
  call void @_ZNK3zmq14plain_server_t13produce_errorEPNS_5msg_tE(ptr noundef nonnull align 8 dereferenceable(1576) %this1, ptr noundef %3)
  %state6 = getelementptr inbounds %"class.zmq::zap_client_common_handshake_t", ptr %this1, i32 0, i32 1
  store i32 6, ptr %state6, align 8
  br label %sw.epilog

sw.default:                                       ; preds = %entry
  %call = call ptr @__errno_location() #13
  store i32 11, ptr %call, align 4
  store i32 -1, ptr %rc, align 4
  br label %sw.epilog

sw.epilog:                                        ; preds = %sw.default, %sw.bb5, %sw.bb3, %sw.bb
  %4 = load i32, ptr %rc, align 4
  ret i32 %4
}