; Function Attrs: mustprogress uwtable
define noundef i32 @_ZN3zmq14plain_server_t22next_handshake_commandEPNS_5msg_tE(ptr noundef nonnull align 8 dereferenceable(1576) %this, ptr noundef %msg_) unnamed_addr #0 align 2 {
entry:
  %state = getelementptr inbounds i8, ptr %this, i64 72
  %0 = load i32, ptr %state, align 8
  switch i32 %0, label %sw.default [
    i32 1, label %sw.bb
    i32 4, label %sw.bb3
    i32 5, label %sw.bb5
  ]

sw.bb:                                            ; preds = %entry
  tail call void @_ZN3zmq14plain_server_t15produce_welcomeEPNS_5msg_tE(ptr noundef %msg_)
  store i32 2, ptr %state, align 8
  br label %sw.epilog

sw.bb3:                                           ; preds = %entry
  %add.ptr.i = getelementptr inbounds i8, ptr %this, i64 80
  tail call void @_ZNK3zmq11mechanism_t34make_command_with_basic_propertiesEPNS_5msg_tEPKcm(ptr noundef nonnull align 8 dereferenceable(1488) %add.ptr.i, ptr noundef %msg_, ptr noundef nonnull @_ZN3zmqL12ready_prefixE, i64 noundef 6)
  store i32 7, ptr %state, align 8
  br label %sw.epilog

sw.bb5:                                           ; preds = %entry
  tail call void @_ZNK3zmq14plain_server_t13produce_errorEPNS_5msg_tE(ptr noundef nonnull align 8 dereferenceable(1576) %this, ptr noundef %msg_)
  store i32 6, ptr %state, align 8
  br label %sw.epilog

sw.default:                                       ; preds = %entry
  %call = tail call ptr @__errno_location() #15
  store i32 11, ptr %call, align 4
  br label %sw.epilog

sw.epilog:                                        ; preds = %sw.default, %sw.bb5, %sw.bb3, %sw.bb
  %rc.0 = phi i32 [ -1, %sw.default ], [ 0, %sw.bb5 ], [ 0, %sw.bb3 ], [ 0, %sw.bb ]
  ret i32 %rc.0
}